target datalayout = "e-m:e-p270:32:32-p271:32:32-p272:64:64-i64:64-i128:128-f80:128-n8:16:32:64-S128"
target triple = "x86_64-pc-linux-gnu"

%struct.cbb_st = type { ptr, ptr, i64, i8, i8, i8 }

; Function Attrs: nounwind uwtable
define internal i32 @pkcs7_bundle(ptr noundef %0, ptr noundef %1, ptr noundef %2) #0 {
  %4 = alloca i32, align 4
  %5 = alloca ptr, align 8
  %6 = alloca ptr, align 8
  %7 = alloca ptr, align 8
  %8 = alloca %struct.cbb_st, align 8
  %9 = alloca %struct.cbb_st, align 8
  %10 = alloca %struct.cbb_st, align 8
  %11 = alloca %struct.cbb_st, align 8
  %12 = alloca %struct.cbb_st, align 8
  %13 = alloca %struct.cbb_st, align 8
  %14 = alloca i32, align 4
  store ptr %0, ptr %5, align 8, !tbaa !34
  store ptr %1, ptr %6, align 8, !tbaa !36
  store ptr %2, ptr %7, align 8, !tbaa !36
  call void @llvm.lifetime.start.p0(i64 32, ptr %8) #4
  call void @llvm.lifetime.start.p0(i64 32, ptr %9) #4
  call void @llvm.lifetime.start.p0(i64 32, ptr %10) #4
  call void @llvm.lifetime.start.p0(i64 32, ptr %11) #4
  call void @llvm.lifetime.start.p0(i64 32, ptr %12) #4
  call void @llvm.lifetime.start.p0(i64 32, ptr %13) #4
  %15 = load ptr, ptr %5, align 8, !tbaa !34
  %16 = call i32 @CBB_add_asn1(ptr noundef %15, ptr noundef %8, i8 noundef zeroext 48)
  %17 = icmp ne i32 %16, 0
  br i1 %17, label %18, label %47

18:                                               ; preds = %3
  %19 = call i32 @OBJ_nid2cbb(ptr noundef %8, i32 noundef 22)
  %20 = icmp ne i32 %19, 0
  br i1 %20, label %21, label %47

21:                                               ; preds = %18
  %22 = call i32 @CBB_add_asn1(ptr noundef %8, ptr noundef %9, i8 noundef zeroext -96)
  %23 = icmp ne i32 %22, 0
  br i1 %23, label %24, label %47

24:                                               ; preds = %21
  %25 = call i32 @CBB_add_asn1(ptr noundef %9, ptr noundef %10, i8 noundef zeroext 48)
  %26 = icmp ne i32 %25, 0
  br i1 %26, label %27, label %47

27:                                               ; preds = %24
  %28 = call i32 @CBB_add_asn1(ptr noundef %10, ptr noundef %11, i8 noundef zeroext 2)
  %29 = icmp ne i32 %28, 0
  br i1 %29, label %30, label %47

30:                                               ; preds = %27
  %31 = call i32 @CBB_add_u8(ptr noundef %11, i8 noundef zeroext 1)
  %32 = icmp ne i32 %31, 0
  br i1 %32, label %33, label %47

33:                                               ; preds = %30
  %34 = call i32 @CBB_add_asn1(ptr noundef %10, ptr noundef %12, i8 noundef zeroext 49)
  %35 = icmp ne i32 %34, 0
  br i1 %35, label %36, label %47

36:                                               ; preds = %33
  %37 = call i32 @CBB_add_asn1(ptr noundef %10, ptr noundef %13, i8 noundef zeroext 48)
  %38 = icmp ne i32 %37, 0
  br i1 %38, label %39, label %47

39:                                               ; preds = %36
  %40 = call i32 @OBJ_nid2cbb(ptr noundef %13, i32 noundef 21)
  %41 = icmp ne i32 %40, 0
  br i1 %41, label %42, label %47

42:                                               ; preds = %39
  %43 = load ptr, ptr %6, align 8, !tbaa !36
  %44 = load ptr, ptr %7, align 8, !tbaa !36
  %45 = call i32 %43(ptr noundef %10, ptr noundef %44)
  %46 = icmp ne i32 %45, 0
  br i1 %46, label %48, label %47

47:                                               ; preds = %42, %39, %36, %33, %30, %27, %24, %21, %18, %3
  store i32 0, ptr %4, align 4
  store i32 1, ptr %14, align 4
  br label %51

48:                                               ; preds = %42
  %49 = load ptr, ptr %5, align 8, !tbaa !34
  %50 = call i32 @CBB_flush(ptr noundef %49)
  store i32 %50, ptr %4, align 4
  store i32 1, ptr %14, align 4
  br label %51

51:                                               ; preds = %48, %47
  call void @llvm.lifetime.end.p0(i64 32, ptr %13) #4
  call void @llvm.lifetime.end.p0(i64 32, ptr %12) #4
  call void @llvm.lifetime.end.p0(i64 32, ptr %11) #4
  call void @llvm.lifetime.end.p0(i64 32, ptr %10) #4
  call void @llvm.lifetime.end.p0(i64 32, ptr %9) #4
  call void @llvm.lifetime.end.p0(i64 32, ptr %8) #4
  %52 = load i32, ptr %4, align 4
  ret i32 %52
}