; Function Attrs: nounwind uwtable
define internal fastcc i32 @pkcs7_bundle(ptr noundef %0, ptr noundef readonly captures(none) %1, ptr noundef %2) unnamed_addr #0 {
  %4 = alloca %struct.cbb_st, align 8
  %5 = alloca %struct.cbb_st, align 8
  %6 = alloca %struct.cbb_st, align 8
  %7 = alloca %struct.cbb_st, align 8
  %8 = alloca %struct.cbb_st, align 8
  %9 = alloca %struct.cbb_st, align 8
  call void @llvm.lifetime.start.p0(i64 32, ptr nonnull %4) #4
  call void @llvm.lifetime.start.p0(i64 32, ptr nonnull %5) #4
  call void @llvm.lifetime.start.p0(i64 32, ptr nonnull %6) #4
  call void @llvm.lifetime.start.p0(i64 32, ptr nonnull %7) #4
  call void @llvm.lifetime.start.p0(i64 32, ptr nonnull %8) #4
  call void @llvm.lifetime.start.p0(i64 32, ptr nonnull %9) #4
  %10 = call i32 @CBB_add_asn1(ptr noundef %0, ptr noundef nonnull %4, i8 noundef zeroext 48) #4
  %.not = icmp eq i32 %10, 0
  br i1 %.not, label %31, label %11

11:                                               ; preds = %3
  %12 = call i32 @OBJ_nid2cbb(ptr noundef nonnull %4, i32 noundef 22) #4
  %.not4 = icmp eq i32 %12, 0
  br i1 %.not4, label %31, label %13

13:                                               ; preds = %11
  %14 = call i32 @CBB_add_asn1(ptr noundef nonnull %4, ptr noundef nonnull %5, i8 noundef zeroext -96) #4
  %.not5 = icmp eq i32 %14, 0
  br i1 %.not5, label %31, label %15

15:                                               ; preds = %13
  %16 = call i32 @CBB_add_asn1(ptr noundef nonnull %5, ptr noundef nonnull %6, i8 noundef zeroext 48) #4
  %.not6 = icmp eq i32 %16, 0
  br i1 %.not6, label %31, label %17

17:                                               ; preds = %15
  %18 = call i32 @CBB_add_asn1(ptr noundef nonnull %6, ptr noundef nonnull %7, i8 noundef zeroext 2) #4
  %.not7 = icmp eq i32 %18, 0
  br i1 %.not7, label %31, label %19

19:                                               ; preds = %17
  %20 = call i32 @CBB_add_u8(ptr noundef nonnull %7, i8 noundef zeroext 1) #4
  %.not8 = icmp eq i32 %20, 0
  br i1 %.not8, label %31, label %21

21:                                               ; preds = %19
  %22 = call i32 @CBB_add_asn1(ptr noundef nonnull %6, ptr noundef nonnull %8, i8 noundef zeroext 49) #4
  %.not9 = icmp eq i32 %22, 0
  br i1 %.not9, label %31, label %23

23:                                               ; preds = %21
  %24 = call i32 @CBB_add_asn1(ptr noundef nonnull %6, ptr noundef nonnull %9, i8 noundef zeroext 48) #4
  %.not10 = icmp eq i32 %24, 0
  br i1 %.not10, label %31, label %25

25:                                               ; preds = %23
  %26 = call i32 @OBJ_nid2cbb(ptr noundef nonnull %9, i32 noundef 21) #4
  %.not11 = icmp eq i32 %26, 0
  br i1 %.not11, label %31, label %27

27:                                               ; preds = %25
  %28 = call i32 %1(ptr noundef nonnull %6, ptr noundef %2) #4, !callees !16
  %.not12 = icmp eq i32 %28, 0
  br i1 %.not12, label %31, label %29

29:                                               ; preds = %27
  %30 = call i32 @CBB_flush(ptr noundef %0) #4
  br label %31

31:                                               ; preds = %3, %11, %13, %15, %17, %19, %21, %23, %25, %27, %29
  %.0 = phi i32 [ %30, %29 ], [ 0, %27 ], [ 0, %25 ], [ 0, %23 ], [ 0, %21 ], [ 0, %19 ], [ 0, %17 ], [ 0, %15 ], [ 0, %13 ], [ 0, %11 ], [ 0, %3 ]
  call void @llvm.lifetime.end.p0(i64 32, ptr nonnull %9) #4
  call void @llvm.lifetime.end.p0(i64 32, ptr nonnull %8) #4
  call void @llvm.lifetime.end.p0(i64 32, ptr nonnull %7) #4
  call void @llvm.lifetime.end.p0(i64 32, ptr nonnull %6) #4
  call void @llvm.lifetime.end.p0(i64 32, ptr nonnull %5) #4
  call void @llvm.lifetime.end.p0(i64 32, ptr nonnull %4) #4
  ret i32 %.0
}